target datalayout = "e-m:e-p270:32:32-p271:32:32-p272:64:64-i64:64-i128:128-f80:128-n8:16:32:64-S128"
target triple = "x86_64-unknown-linux-gnu"

%"struct.std::pair" = type { i32, i32 }
%"class.polynomial::power" = type { %"struct.std::pair" }
%"class.polynomial::monomial" = type { i32, i32, i32, i32, i32, [0 x %"class.polynomial::power"] }

; Function Attrs: mustprogress nounwind uwtable
define linkonce_odr hidden noundef i32 @_ZNK10polynomial5power6degreeEv(ptr noundef nonnull align 4 dereferenceable(8) %this) #4 comdat align 2 {
entry:
  %this.addr = alloca ptr, align 8
  store ptr %this, ptr %this.addr, align 8
  %this1 = load ptr, ptr %this.addr, align 8
  %second = getelementptr inbounds %"struct.std::pair", ptr %this1, i32 0, i32 1
  %0 = load i32, ptr %second, align 4
  ret i32 %0
}

; Function Attrs: mustprogress nounwind uwtable
define linkonce_odr hidden noundef i32 @_ZNK10polynomial5power7get_varEv(ptr noundef nonnull align 4 dereferenceable(8) %this) #4 comdat align 2 {
entry:
  %this.addr = alloca ptr, align 8
  store ptr %this, ptr %this.addr, align 8
  %this1 = load ptr, ptr %this.addr, align 8
  %first = getelementptr inbounds %"struct.std::pair", ptr %this1, i32 0, i32 0
  %0 = load i32, ptr %first, align 4
  ret i32 %0
}

; Function Attrs: mustprogress nounwind uwtable
define linkonce_odr hidden noundef nonnull align 4 dereferenceable(8) ptr @_ZNK10polynomial8monomial9get_powerEj(ptr noundef nonnull align 4 dereferenceable(20) %this, i32 noundef %idx) #4 comdat align 2 {
entry:
  %this.addr = alloca ptr, align 8
  %idx.addr = alloca i32, align 4
  store ptr %this, ptr %this.addr, align 8
  store i32 %idx, ptr %idx.addr, align 4
  %this1 = load ptr, ptr %this.addr, align 8
  %m_powers = getelementptr inbounds %"class.polynomial::monomial", ptr %this1, i32 0, i32 5
  %0 = load i32, ptr %idx.addr, align 4
  %idxprom = zext i32 %0 to i64
  %arrayidx = getelementptr inbounds [0 x %"class.polynomial::power"], ptr %m_powers, i64 0, i64 %idxprom
  ret ptr %arrayidx
}

; Function Attrs: mustprogress uwtable
define hidden noundef i32 @_ZN10polynomial15rev_lex_compareEPKNS_8monomialEjjS2_jj(ptr noundef %m1, i32 noundef %start1, i32 noundef %end1, ptr noundef %m2, i32 noundef %start2, i32 noundef %end2) #5 {
entry:
  %retval = alloca i32, align 4
  %m1.addr = alloca ptr, align 8
  %start1.addr = alloca i32, align 4
  %end1.addr = alloca i32, align 4
  %m2.addr = alloca ptr, align 8
  %start2.addr = alloca i32, align 4
  %end2.addr = alloca i32, align 4
  %idx1 = alloca i32, align 4
  %idx2 = alloca i32, align 4
  %pw1 = alloca ptr, align 8
  %pw2 = alloca ptr, align 8
  store ptr %m1, ptr %m1.addr, align 8
  store i32 %start1, ptr %start1.addr, align 4
  store i32 %end1, ptr %end1.addr, align 4
  store ptr %m2, ptr %m2.addr, align 8
  store i32 %start2, ptr %start2.addr, align 4
  store i32 %end2, ptr %end2.addr, align 4
  %0 = load i32, ptr %end1.addr, align 4
  store i32 %0, ptr %idx1, align 4
  %1 = load i32, ptr %end2.addr, align 4
  store i32 %1, ptr %idx2, align 4
  br label %while.cond

while.cond:                                       ; preds = %if.then10, %entry
  %2 = load i32, ptr %idx1, align 4
  %3 = load i32, ptr %start1.addr, align 4
  %cmp = icmp ugt i32 %2, %3
  br i1 %cmp, label %land.rhs, label %land.end

land.rhs:                                         ; preds = %while.cond
  %4 = load i32, ptr %idx2, align 4
  %5 = load i32, ptr %start2.addr, align 4
  %cmp1 = icmp ugt i32 %4, %5
  br label %land.end

land.end:                                         ; preds = %land.rhs, %while.cond
  %6 = phi i1 [ false, %while.cond ], [ %cmp1, %land.rhs ]
  br i1 %6, label %while.body, label %while.end

while.body:                                       ; preds = %land.end
  %7 = load i32, ptr %idx1, align 4
  %dec = add i32 %7, -1
  store i32 %dec, ptr %idx1, align 4
  %8 = load i32, ptr %idx2, align 4
  %dec2 = add i32 %8, -1
  store i32 %dec2, ptr %idx2, align 4
  %9 = load ptr, ptr %m1.addr, align 8
  %10 = load i32, ptr %idx1, align 4
  %call = call noundef nonnull align 4 dereferenceable(8) ptr @_ZNK10polynomial8monomial9get_powerEj(ptr noundef nonnull align 4 dereferenceable(20) %9, i32 noundef %10)
  store ptr %call, ptr %pw1, align 8
  %11 = load ptr, ptr %m2.addr, align 8
  %12 = load i32, ptr %idx2, align 4
  %call3 = call noundef nonnull align 4 dereferenceable(8) ptr @_ZNK10polynomial8monomial9get_powerEj(ptr noundef nonnull align 4 dereferenceable(20) %11, i32 noundef %12)
  store ptr %call3, ptr %pw2, align 8
  %13 = load ptr, ptr %pw1, align 8
  %call4 = call noundef i32 @_ZNK10polynomial5power7get_varEv(ptr noundef nonnull align 4 dereferenceable(8) %13)
  %14 = load ptr, ptr %pw2, align 8
  %call5 = call noundef i32 @_ZNK10polynomial5power7get_varEv(ptr noundef nonnull align 4 dereferenceable(8) %14)
  %cmp6 = icmp eq i32 %call4, %call5
  br i1 %cmp6, label %if.then, label %if.end14

if.then:                                          ; preds = %while.body
  %15 = load ptr, ptr %pw1, align 8
  %call7 = call noundef i32 @_ZNK10polynomial5power6degreeEv(ptr noundef nonnull align 4 dereferenceable(8) %15)
  %16 = load ptr, ptr %pw2, align 8
  %call8 = call noundef i32 @_ZNK10polynomial5power6degreeEv(ptr noundef nonnull align 4 dereferenceable(8) %16)
  %cmp9 = icmp eq i32 %call7, %call8
  br i1 %cmp9, label %if.then10, label %if.end

if.then10:                                        ; preds = %if.then
  br label %while.cond, !llvm.loop !10

if.end:                                           ; preds = %if.then
  %17 = load ptr, ptr %pw1, align 8
  %call11 = call noundef i32 @_ZNK10polynomial5power6degreeEv(ptr noundef nonnull align 4 dereferenceable(8) %17)
  %18 = load ptr, ptr %pw2, align 8
  %call12 = call noundef i32 @_ZNK10polynomial5power6degreeEv(ptr noundef nonnull align 4 dereferenceable(8) %18)
  %cmp13 = icmp ugt i32 %call11, %call12
  %cond = select i1 %cmp13, i32 -1, i32 1
  store i32 %cond, ptr %retval, align 4
  br label %return

if.end14:                                         ; preds = %while.body
  %19 = load ptr, ptr %pw1, align 8
  %call15 = call noundef i32 @_ZNK10polynomial5power7get_varEv(ptr noundef nonnull align 4 dereferenceable(8) %19)
  %20 = load ptr, ptr %pw2, align 8
  %call16 = call noundef i32 @_ZNK10polynomial5power7get_varEv(ptr noundef nonnull align 4 dereferenceable(8) %20)
  %cmp17 = icmp ugt i32 %call15, %call16
  %cond18 = select i1 %cmp17, i32 -1, i32 1
  store i32 %cond18, ptr %retval, align 4
  br label %return

while.end:                                        ; preds = %land.end
  %21 = load i32, ptr %idx1, align 4
  %22 = load i32, ptr %start1.addr, align 4
  %cmp19 = icmp eq i32 %21, %22
  br i1 %cmp19, label %if.then20, label %if.end23

if.then20:                                        ; preds = %while.end
  %23 = load i32, ptr %idx2, align 4
  %24 = load i32, ptr %start2.addr, align 4
  %cmp21 = icmp eq i32 %23, %24
  %cond22 = select i1 %cmp21, i32 0, i32 -1
  store i32 %cond22, ptr %retval, align 4
  br label %return

if.end23:                                         ; preds = %while.end
  store i32 1, ptr %retval, align 4
  br label %return

return:                                           ; preds = %if.end23, %if.then20, %if.end14, %if.end
  %25 = load i32, ptr %retval, align 4
  ret i32 %25
}