; Function Attrs: mustprogress nofree norecurse nosync nounwind willreturn memory(argmem: read) uwtable
define hidden noundef i32 @_ZN10polynomial15rev_lex_compareEPKNS_8monomialEjjS2_jj(ptr nocapture noundef readonly %m1, i32 noundef %start1, i32 noundef %end1, ptr nocapture noundef readonly %m2, i32 noundef %start2, i32 noundef %end2) local_unnamed_addr #5 {
entry:
  %m_powers.i = getelementptr inbounds i8, ptr %m1, i64 20
  %m_powers.i15 = getelementptr inbounds i8, ptr %m2, i64 20
  %0 = zext i32 %end2 to i64
  %1 = zext i32 %start2 to i64
  %2 = zext i32 %end1 to i64
  %3 = zext i32 %start1 to i64
  br label %while.cond

while.cond:                                       ; preds = %if.then, %entry
  %indvars.iv40 = phi i64 [ %5, %if.then ], [ %2, %entry ]
  %indvars.iv = phi i64 [ %6, %if.then ], [ %0, %entry ]
  %cmp = icmp ugt i64 %indvars.iv40, %3
  %cmp1 = icmp ugt i64 %indvars.iv, %1
  %4 = and i1 %cmp1, %cmp
  br i1 %4, label %while.body, label %while.end

while.body:                                       ; preds = %while.cond
  %5 = add nsw i64 %indvars.iv40, -1
  %6 = add nsw i64 %indvars.iv, -1
  %arrayidx.i = getelementptr inbounds [0 x %"class.polynomial::power"], ptr %m_powers.i, i64 0, i64 %5
  %arrayidx.i17 = getelementptr inbounds [0 x %"class.polynomial::power"], ptr %m_powers.i15, i64 0, i64 %6
  %7 = load i32, ptr %arrayidx.i, align 4
  %8 = load i32, ptr %arrayidx.i17, align 4
  %cmp6 = icmp eq i32 %7, %8
  br i1 %cmp6, label %if.then, label %if.end14

if.then:                                          ; preds = %while.body
  %second.i = getelementptr inbounds i8, ptr %arrayidx.i, i64 4
  %9 = load i32, ptr %second.i, align 4
  %second.i18 = getelementptr inbounds i8, ptr %arrayidx.i17, i64 4
  %10 = load i32, ptr %second.i18, align 4
  %cmp9 = icmp eq i32 %9, %10
  br i1 %cmp9, label %while.cond, label %if.end, !llvm.loop !10

if.end:                                           ; preds = %if.then
  %cmp13 = icmp ugt i32 %9, %10
  %cond = select i1 %cmp13, i32 -1, i32 1
  br label %return

if.end14:                                         ; preds = %while.body
  %cmp17 = icmp ugt i32 %7, %8
  %cond18 = select i1 %cmp17, i32 -1, i32 1
  br label %return

while.end:                                        ; preds = %while.cond
  %11 = trunc i64 %indvars.iv40 to i32
  %cmp19 = icmp eq i32 %11, %start1
  br i1 %cmp19, label %if.then20, label %return

if.then20:                                        ; preds = %while.end
  %12 = trunc i64 %indvars.iv to i32
  %cmp21 = icmp ne i32 %12, %start2
  %cond22 = sext i1 %cmp21 to i32
  br label %return

return:                                           ; preds = %while.end, %if.then20, %if.end14, %if.end
  %retval.0 = phi i32 [ %cond, %if.end ], [ %cond18, %if.end14 ], [ %cond22, %if.then20 ], [ 1, %while.end ]
  ret i32 %retval.0
}